target datalayout = "e-m:e-p270:32:32-p271:32:32-p272:64:64-i64:64-i128:128-f80:128-n8:16:32:64-S128"
target triple = "x86_64-pc-linux-gnu"

%"class.doctest::String" = type { %union.anon }
%union.anon = type { %"struct.doctest::String::view", [8 x i8] }
%"struct.doctest::String::view" = type { ptr, i32, i32 }
%"class.std::vector.23" = type { %"struct.std::_Vector_base.24" }
%"struct.std::_Vector_base.24" = type { %"struct.std::_Vector_base<std::__cxx11::basic_string<char>, std::allocator<std::__cxx11::basic_string<char>>>::_Vector_impl" }
%"struct.std::_Vector_base<std::__cxx11::basic_string<char>, std::allocator<std::__cxx11::basic_string<char>>>::_Vector_impl" = type { %"struct.std::_Vector_base<std::__cxx11::basic_string<char>, std::allocator<std::__cxx11::basic_string<char>>>::_Vector_impl_data" }
%"struct.std::_Vector_base<std::__cxx11::basic_string<char>, std::allocator<std::__cxx11::basic_string<char>>>::_Vector_impl_data" = type { ptr, ptr, ptr }
%"class.std::__cxx11::basic_string" = type { %"struct.std::__cxx11::basic_string<char>::_Alloc_hider", i64, %union.anon.3 }
%"struct.std::__cxx11::basic_string<char>::_Alloc_hider" = type { ptr }
%union.anon.3 = type { i64, [8 x i8] }
%"struct.Luau::CheckResult" = type { %"class.std::vector.210", %"struct.Luau::LintResult", %"class.std::vector.23" }
%"class.std::vector.210" = type { %"struct.std::_Vector_base.211" }
%"struct.std::_Vector_base.211" = type { %"struct.std::_Vector_base<Luau::TypeError, std::allocator<Luau::TypeError>>::_Vector_impl" }
%"struct.std::_Vector_base<Luau::TypeError, std::allocator<Luau::TypeError>>::_Vector_impl" = type { %"struct.std::_Vector_base<Luau::TypeError, std::allocator<Luau::TypeError>>::_Vector_impl_data" }
%"struct.std::_Vector_base<Luau::TypeError, std::allocator<Luau::TypeError>>::_Vector_impl_data" = type { ptr, ptr, ptr }
%"struct.Luau::LintResult" = type { %"class.std::vector.215", %"class.std::vector.215" }
%"class.std::vector.215" = type { %"struct.std::_Vector_base.216" }
%"struct.std::_Vector_base.216" = type { %"struct.std::_Vector_base<Luau::LintWarning, std::allocator<Luau::LintWarning>>::_Vector_impl" }
%"struct.std::_Vector_base<Luau::LintWarning, std::allocator<Luau::LintWarning>>::_Vector_impl" = type { %"struct.std::_Vector_base<Luau::LintWarning, std::allocator<Luau::LintWarning>>::_Vector_impl_data" }
%"struct.std::_Vector_base<Luau::LintWarning, std::allocator<Luau::LintWarning>>::_Vector_impl_data" = type { ptr, ptr, ptr }
%"struct.Luau::Location" = type { %"struct.Luau::Position", %"struct.Luau::Position" }
%"struct.Luau::Position" = type { i32, i32 }
%"struct.Luau::TypeError" = type { %"struct.Luau::Location", %"class.std::__cxx11::basic_string", %"class.Luau::Variant.220" }
%"class.Luau::Variant.220" = type { i32, [4 x i8], [104 x i8] }
%"struct.doctest::detail::ContextScopeBase.base" = type <{ %"struct.doctest::IContextScope", i8 }>
%"struct.doctest::IContextScope" = type { ptr }
%"struct.doctest::detail::MessageBuilder" = type <{ %"struct.doctest::MessageData", ptr, i8, [7 x i8] }>
%"struct.doctest::MessageData" = type { %"class.doctest::String", ptr, i32, i32 }
%"class.doctest::detail::ContextScope.653" = type { %"struct.doctest::detail::ContextScopeBase.base", %class.anon.654 }
%class.anon.654 = type { ptr }

@.str.57 = private unnamed_addr constant [120 x i8] c"generated/home/dtcxzyw/WorkSpace/Projects/compilers/llvm-opt-benchmark/bench/luau/luau/tests/TypeInfer.classes.test.cpp\00", align 1
@.str.269 = private unnamed_addr constant [55 x i8] c"Expected DynamicPropertyLookupOnClassesUnsafe but got \00", align 1

; Function Attrs: mustprogress uwtable
define linkonce_odr dso_local noundef nonnull align 8 dereferenceable(49) ptr @_ZN7doctest6detail14MessageBuilderlsIN4Luau9TypeErrorEEERS1_RKT_(ptr noundef nonnull align 8 dereferenceable(49) %0, ptr noundef nonnull align 8 dereferenceable(160) %1) #5 comdat align 2 {
  %3 = alloca ptr, align 8
  %4 = alloca ptr, align 8
  store ptr %0, ptr %3, align 8
  store ptr %1, ptr %4, align 8
  %5 = load ptr, ptr %3, align 8
  %6 = load ptr, ptr %4, align 8
  %7 = call noundef nonnull align 8 dereferenceable(49) ptr @_ZN7doctest6detail14MessageBuildercmIN4Luau9TypeErrorEEERS1_RKT_(ptr noundef nonnull align 8 dereferenceable(49) %5, ptr noundef nonnull align 8 dereferenceable(160) %6)
  ret ptr %7
}

; Function Attrs: mustprogress nounwind uwtable
define linkonce_odr dso_local noundef nonnull align 8 dereferenceable(160) ptr @_ZNSt6vectorIN4Luau9TypeErrorESaIS1_EEixEm(ptr noundef nonnull align 8 dereferenceable(24) %0, i64 noundef %1) #1 comdat align 2 {
  %3 = alloca ptr, align 8
  %4 = alloca i64, align 8
  store ptr %0, ptr %3, align 8
  store i64 %1, ptr %4, align 8
  %5 = load ptr, ptr %3, align 8
  %6 = getelementptr inbounds %"struct.std::_Vector_base.211", ptr %5, i32 0, i32 0
  %7 = getelementptr inbounds %"struct.std::_Vector_base<Luau::TypeError, std::allocator<Luau::TypeError>>::_Vector_impl_data", ptr %6, i32 0, i32 0
  %8 = load ptr, ptr %7, align 8
  %9 = load i64, ptr %4, align 8
  %10 = getelementptr inbounds %"struct.Luau::TypeError", ptr %8, i64 %9
  ret ptr %10
}

; Function Attrs: mustprogress uwtable
define linkonce_odr dso_local noundef nonnull align 8 dereferenceable(49) ptr @_ZN7doctest6detail14MessageBuildermlIA55_cEERS1_RKT_(ptr noundef nonnull align 8 dereferenceable(49) %0, ptr noundef nonnull align 1 dereferenceable(55) %1) #5 comdat align 2 {
  %3 = alloca ptr, align 8
  %4 = alloca ptr, align 8
  store ptr %0, ptr %3, align 8
  store ptr %1, ptr %4, align 8
  %5 = load ptr, ptr %3, align 8
  %6 = load ptr, ptr %4, align 8
  %7 = call noundef nonnull align 8 dereferenceable(49) ptr @_ZN7doctest6detail14MessageBuildercmIA55_cEERS1_RKT_(ptr noundef nonnull align 8 dereferenceable(49) %5, ptr noundef nonnull align 1 dereferenceable(55) %6)
  ret ptr %7
}

; Function Attrs: mustprogress uwtable
define internal void @_ZZN12_GLOBAL__N_122DOCTEST_ANON_CLASS_2431fEvENKUlPSoE0_clES1_(ptr noundef nonnull align 8 dereferenceable(8) %0, ptr noundef %1) #5 align 2 personality ptr @__gxx_personality_v0 {
  %3 = alloca ptr, align 8
  %4 = alloca ptr, align 8
  %5 = alloca %"struct.doctest::detail::MessageBuilder", align 8
  %6 = alloca ptr, align 8
  %7 = alloca i32, align 4
  store ptr %0, ptr %3, align 8
  store ptr %1, ptr %4, align 8
  %8 = load ptr, ptr %3, align 8
  call void @_ZN7doctest6detail14MessageBuilderC1EPKciNS_10assertType4EnumE(ptr noundef nonnull align 8 dereferenceable(49) %5, ptr noundef @.str.57, i32 noundef 728, i32 noundef 1)
  %9 = load ptr, ptr %4, align 8
  %10 = getelementptr inbounds %"struct.doctest::detail::MessageBuilder", ptr %5, i32 0, i32 1
  store ptr %9, ptr %10, align 8
  %11 = invoke noundef nonnull align 8 dereferenceable(49) ptr @_ZN7doctest6detail14MessageBuildermlIA55_cEERS1_RKT_(ptr noundef nonnull align 8 dereferenceable(49) %5, ptr noundef nonnull align 1 dereferenceable(55) @.str.269)
          to label %12 unwind label %19

12:                                               ; preds = %2
  %13 = getelementptr inbounds %class.anon.654, ptr %8, i32 0, i32 0
  %14 = load ptr, ptr %13, align 8
  %15 = getelementptr inbounds %"struct.Luau::CheckResult", ptr %14, i32 0, i32 0
  %16 = call noundef nonnull align 8 dereferenceable(160) ptr @_ZNSt6vectorIN4Luau9TypeErrorESaIS1_EEixEm(ptr noundef nonnull align 8 dereferenceable(24) %15, i64 noundef 0) #2
  %17 = invoke noundef nonnull align 8 dereferenceable(49) ptr @_ZN7doctest6detail14MessageBuilderlsIN4Luau9TypeErrorEEERS1_RKT_(ptr noundef nonnull align 8 dereferenceable(49) %11, ptr noundef nonnull align 8 dereferenceable(160) %16)
          to label %18 unwind label %19

18:                                               ; preds = %12
  call void @_ZN7doctest6detail14MessageBuilderD1Ev(ptr noundef nonnull align 8 dereferenceable(49) %5) #2
  ret void

19:                                               ; preds = %12, %2
  %20 = landingpad { ptr, i32 }
          cleanup
  %21 = extractvalue { ptr, i32 } %20, 0
  store ptr %21, ptr %6, align 8
  %22 = extractvalue { ptr, i32 } %20, 1
  store i32 %22, ptr %7, align 4
  call void @_ZN7doctest6detail14MessageBuilderD1Ev(ptr noundef nonnull align 8 dereferenceable(49) %5) #2
  br label %23

23:                                               ; preds = %19
  %24 = load ptr, ptr %6, align 8
  %25 = load i32, ptr %7, align 4
  %26 = insertvalue { ptr, i32 } poison, ptr %24, 0
  %27 = insertvalue { ptr, i32 } %26, i32 %25, 1
  resume { ptr, i32 } %27
}

; Function Attrs: mustprogress uwtable
define internal void @_ZNK7doctest6detail12ContextScopeIZN12_GLOBAL__N_122DOCTEST_ANON_CLASS_2431fEvEUlPSoE0_E9stringifyES4_(ptr noundef nonnull align 8 dereferenceable(24) %0, ptr noundef %1) unnamed_addr #5 align 2 {
  %3 = alloca ptr, align 8
  %4 = alloca ptr, align 8
  store ptr %0, ptr %3, align 8
  store ptr %1, ptr %4, align 8
  %5 = load ptr, ptr %3, align 8
  %6 = getelementptr inbounds %"class.doctest::detail::ContextScope.653", ptr %5, i32 0, i32 1
  %7 = load ptr, ptr %4, align 8
  call void @_ZZN12_GLOBAL__N_122DOCTEST_ANON_CLASS_2431fEvENKUlPSoE0_clES1_(ptr noundef nonnull align 8 dereferenceable(8) %6, ptr noundef %7)
  ret void
}