; Function Attrs: mustprogress uwtable
define internal void @_ZNK7doctest6detail12ContextScopeIZN12_GLOBAL__N_122DOCTEST_ANON_CLASS_2431fEvEUlPSoE0_E9stringifyES4_(ptr nocapture noundef nonnull readonly align 8 dereferenceable(24) %0, ptr noundef %1) unnamed_addr #5 align 2 personality ptr @__gxx_personality_v0 {
  %3 = alloca %"struct.doctest::detail::MessageBuilder", align 8
  call void @llvm.lifetime.start.p0(i64 56, ptr nonnull %3)
  call void @_ZN7doctest6detail14MessageBuilderC1EPKciNS_10assertType4EnumE(ptr noundef nonnull align 8 dereferenceable(49) %3, ptr noundef nonnull @.str.57, i32 noundef 728, i32 noundef 1)
  %4 = getelementptr inbounds i8, ptr %3, i64 40
  store ptr %1, ptr %4, align 8
  %5 = invoke noundef nonnull align 8 dereferenceable(49) ptr @_ZN7doctest6detail14MessageBuildercmIA55_cEERS1_RKT_(ptr noundef nonnull align 8 dereferenceable(49) %3, ptr noundef nonnull align 1 dereferenceable(55) @.str.269)
          to label %_ZN7doctest6detail14MessageBuildermlIA55_cEERS1_RKT_.exit.i unwind label %10

_ZN7doctest6detail14MessageBuildermlIA55_cEERS1_RKT_.exit.i: ; preds = %2
  %6 = getelementptr inbounds i8, ptr %0, i64 16
  %7 = load ptr, ptr %6, align 8
  %8 = load ptr, ptr %7, align 8
  %9 = invoke noundef nonnull align 8 dereferenceable(49) ptr @_ZN7doctest6detail14MessageBuildercmIN4Luau9TypeErrorEEERS1_RKT_(ptr noundef nonnull align 8 dereferenceable(49) %5, ptr noundef nonnull align 8 dereferenceable(160) %8)
          to label %_ZZN12_GLOBAL__N_122DOCTEST_ANON_CLASS_2431fEvENKUlPSoE0_clES1_.exit unwind label %10

10:                                               ; preds = %_ZN7doctest6detail14MessageBuildermlIA55_cEERS1_RKT_.exit.i, %2
  %11 = landingpad { ptr, i32 }
          cleanup
  call void @_ZN7doctest6detail14MessageBuilderD1Ev(ptr noundef nonnull align 8 dereferenceable(49) %3) #21
  resume { ptr, i32 } %11

_ZZN12_GLOBAL__N_122DOCTEST_ANON_CLASS_2431fEvENKUlPSoE0_clES1_.exit: ; preds = %_ZN7doctest6detail14MessageBuildermlIA55_cEERS1_RKT_.exit.i
  call void @_ZN7doctest6detail14MessageBuilderD1Ev(ptr noundef nonnull align 8 dereferenceable(49) %3) #21
  call void @llvm.lifetime.end.p0(i64 56, ptr nonnull %3)
  ret void
}